target datalayout = "e-m:e-p270:32:32-p271:32:32-p272:64:64-i64:64-i128:128-f80:128-n8:16:32:64-S128"
target triple = "x86_64-pc-linux-gnu"

%struct.AVFilterContext = type { ptr, ptr, ptr, ptr, ptr, i32, ptr, ptr, i32, ptr, ptr, i32, i32, ptr, ptr, ptr, ptr, i32, ptr, i32, i32 }
%struct.AudioHistogramContext = type { ptr, ptr, i32, i32, %struct.AVRational, ptr, ptr, i32, i32, float, i32, i32, i32, i32, i32, i32, i32, i32, i32, ptr, [101 x ptr], i32, i32, ptr }
%struct.AVRational = type { i32, i32 }

; Function Attrs: cold nounwind optsize uwtable
define internal void @uninit(ptr noundef %0) #0 {
  %2 = alloca ptr, align 8
  %3 = alloca ptr, align 8
  %4 = alloca i32, align 4
  store ptr %0, ptr %2, align 8, !tbaa !4
  call void @llvm.lifetime.start.p0(i64 8, ptr %3) #12
  %5 = load ptr, ptr %2, align 8, !tbaa !4
  %6 = getelementptr inbounds nuw %struct.AVFilterContext, ptr %5, i32 0, i32 9
  %7 = load ptr, ptr %6, align 8, !tbaa !9
  store ptr %7, ptr %3, align 8, !tbaa !22
  call void @llvm.lifetime.start.p0(i64 4, ptr %4) #12
  %8 = load ptr, ptr %3, align 8, !tbaa !22
  %9 = getelementptr inbounds nuw %struct.AudioHistogramContext, ptr %8, i32 0, i32 1
  call void @av_frame_free(ptr noundef %9)
  %10 = load ptr, ptr %3, align 8, !tbaa !22
  %11 = getelementptr inbounds nuw %struct.AudioHistogramContext, ptr %10, i32 0, i32 6
  call void @av_freep(ptr noundef %11)
  %12 = load ptr, ptr %3, align 8, !tbaa !22
  %13 = getelementptr inbounds nuw %struct.AudioHistogramContext, ptr %12, i32 0, i32 5
  call void @av_freep(ptr noundef %13)
  %14 = load ptr, ptr %3, align 8, !tbaa !22
  %15 = getelementptr inbounds nuw %struct.AudioHistogramContext, ptr %14, i32 0, i32 19
  call void @av_freep(ptr noundef %15)
  store i32 0, ptr %4, align 4, !tbaa !24
  br label %16

16:                                               ; preds = %25, %1
  %17 = load i32, ptr %4, align 4, !tbaa !24
  %18 = icmp slt i32 %17, 101
  br i1 %18, label %19, label %28

19:                                               ; preds = %16
  %20 = load ptr, ptr %3, align 8, !tbaa !22
  %21 = getelementptr inbounds nuw %struct.AudioHistogramContext, ptr %20, i32 0, i32 20
  %22 = load i32, ptr %4, align 4, !tbaa !24
  %23 = sext i32 %22 to i64
  %24 = getelementptr inbounds [101 x ptr], ptr %21, i64 0, i64 %23
  call void @av_frame_free(ptr noundef %24)
  br label %25

25:                                               ; preds = %19
  %26 = load i32, ptr %4, align 4, !tbaa !24
  %27 = add nsw i32 %26, 1
  store i32 %27, ptr %4, align 4, !tbaa !24
  br label %16, !llvm.loop !25

28:                                               ; preds = %16
  call void @llvm.lifetime.end.p0(i64 4, ptr %4) #12
  call void @llvm.lifetime.end.p0(i64 8, ptr %3) #12
  ret void
}